; Function Attrs: mustprogress nounwind uwtable
define hidden void @_ZN18InterpreterRuntime11monitorexitEP15BasicObjectLock(ptr noundef %0) local_unnamed_addr #0 align 2 {
  %2 = getelementptr inbounds i8, ptr %0, i64 8
  %3 = load ptr, ptr %2, align 8
  %4 = load volatile i64, ptr %3, align 8
  %5 = and i64 %4, 3
  %6 = icmp eq i64 %5, 1
  br i1 %6, label %7, label %12

7:                                                ; preds = %1
  %8 = load i8, ptr @CheckJNICalls, align 1
  %9 = trunc i8 %8 to i1
  br i1 %9, label %10, label %15

10:                                               ; preds = %7
  %11 = load ptr, ptr @g_assert_poison, align 8
  store i8 88, ptr %11, align 1
  tail call void (i32, ptr, i32, ptr, ...) @_Z12report_fatal11VMErrorTypePKciS1_z(i32 noundef -536870912, ptr noundef nonnull @.str, i32 noundef 767, ptr noundef nonnull @.str.12) #14
  unreachable

12:                                               ; preds = %1
  %13 = tail call align 8 ptr @llvm.threadlocal.address.p0(ptr align 8 @_ZN6Thread12_thr_currentE)
  %14 = load ptr, ptr %13, align 8
  tail call void @_ZN18ObjectSynchronizer4exitEP7oopDescP9BasicLockP10JavaThread(ptr noundef nonnull %3, ptr noundef nonnull %0, ptr noundef %14) #13
  store ptr null, ptr %2, align 8
  br label %15

15:                                               ; preds = %7, %12
  ret void
}